; Function Attrs: nounwind uwtable
define hidden void @je_pac_destroy(ptr noundef %0, ptr noundef %1) local_unnamed_addr #0 {
  %3 = getelementptr i8, ptr %1, i64 58376
  %.val = load ptr, ptr %3, align 8, !tbaa !15
  %4 = tail call ptr @je_base_ehooks_get(ptr noundef %.val) #9
  %5 = getelementptr inbounds nuw i8, ptr %1, i64 38936
  %6 = tail call ptr @je_ecache_evict(ptr noundef %0, ptr noundef nonnull %1, ptr noundef %4, ptr noundef nonnull %5, i64 noundef 0) #9
  %.not9 = icmp eq ptr %6, null
  br i1 %.not9, label %._crit_edge, label %.lr.ph

.lr.ph:                                           ; preds = %2, %.lr.ph
  %7 = phi ptr [ %8, %.lr.ph ], [ %6, %2 ]
  tail call void @je_extent_destroy_wrapper(ptr noundef %0, ptr noundef nonnull %1, ptr noundef %4, ptr noundef nonnull %7) #9
  %8 = tail call ptr @je_ecache_evict(ptr noundef %0, ptr noundef nonnull %1, ptr noundef %4, ptr noundef nonnull %5, i64 noundef 0) #9
  %.not = icmp eq ptr %8, null
  br i1 %.not, label %._crit_edge, label %.lr.ph, !llvm.loop !67

._crit_edge:                                      ; preds = %.lr.ph, %2
  ret void
}